#include <math.h>
#include <stdio.h>
#include <stdlib.h>
#include <string.h>

void main(){
	int n,a[10050];
	int i,j,num;
	scanf("%d",&n);
	a[1]=1;a[2]=1;
	for(j=1;j<10000;j++){
		a[j+2]=a[j+1]+a[j];
	}
	for(i=0;i<n;i++){
		scanf("%d",&num);
		if(num==0)
			printf("0\n");
		else if(num==1)
			printf("1\n");
		else
			printf("%d\n",a[num]);
	}
}
